; ModuleID = '43/1402.c'
source_filename = "43/1402.c"
target datalayout = "e-m:e-p270:32:32-p271:32:32-p272:64:64-i64:64-f80:128-n8:16:32:64-S128"
target triple = "x86_64-pc-linux-gnu"

@.str = private unnamed_addr constant [3 x i8] c"%d\00", align 1
@.str.1 = private unnamed_addr constant [7 x i8] c"%d %d\0A\00", align 1

; Function Attrs: noinline nounwind uwtable
define dso_local i32 @main() #0 {
  %1 = alloca i32, align 4
  %2 = alloca i32, align 4
  %3 = alloca i32, align 4
  %4 = alloca i32, align 4
  %5 = alloca i32, align 4
  %6 = alloca i32, align 4
  store i32 0, i32* %1, align 4
  %7 = call i32 (i8*, ...) @__isoc99_scanf(i8* getelementptr inbounds ([3 x i8], [3 x i8]* @.str, i64 0, i64 0), i32* %4)
  store i32 3, i32* %2, align 4
  br label %8

8:                                                ; preds = %67, %0
  %9 = load i32, i32* %2, align 4
  %10 = load i32, i32* %4, align 4
  %11 = sdiv i32 %10, 2
  %12 = icmp sle i32 %9, %11
  br i1 %12, label %13, label %70

13:                                               ; preds = %8
  store i32 3, i32* %5, align 4
  br label %14

14:                                               ; preds = %29, %13
  %15 = load i32, i32* %5, align 4
  %16 = load i32, i32* %5, align 4
  %17 = mul nsw i32 %15, %16
  %18 = load i32, i32* %2, align 4
  %19 = icmp sle i32 %17, %18
  br i1 %19, label %20, label %30

20:                                               ; preds = %14
  %21 = load i32, i32* %2, align 4
  %22 = load i32, i32* %5, align 4
  %23 = srem i32 %21, %22
  %24 = icmp eq i32 %23, 0
  br i1 %24, label %25, label %26

25:                                               ; preds = %20
  br label %30

26:                                               ; preds = %20
  %27 = load i32, i32* %5, align 4
  %28 = add nsw i32 %27, 2
  store i32 %28, i32* %5, align 4
  br label %29

29:                                               ; preds = %26
  br label %14

30:                                               ; preds = %25, %14
  %31 = load i32, i32* %5, align 4
  %32 = load i32, i32* %5, align 4
  %33 = mul nsw i32 %31, %32
  %34 = load i32, i32* %2, align 4
  %35 = icmp sgt i32 %33, %34
  br i1 %35, label %36, label %67

36:                                               ; preds = %30
  %37 = load i32, i32* %4, align 4
  %38 = load i32, i32* %2, align 4
  %39 = sub nsw i32 %37, %38
  store i32 %39, i32* %3, align 4
  store i32 3, i32* %6, align 4
  br label %40

40:                                               ; preds = %55, %36
  %41 = load i32, i32* %6, align 4
  %42 = load i32, i32* %6, align 4
  %43 = mul nsw i32 %41, %42
  %44 = load i32, i32* %3, align 4
  %45 = icmp sle i32 %43, %44
  br i1 %45, label %46, label %56

46:                                               ; preds = %40
  %47 = load i32, i32* %3, align 4
  %48 = load i32, i32* %6, align 4
  %49 = srem i32 %47, %48
  %50 = icmp eq i32 %49, 0
  br i1 %50, label %51, label %52

51:                                               ; preds = %46
  br label %56

52:                                               ; preds = %46
  %53 = load i32, i32* %6, align 4
  %54 = add nsw i32 %53, 2
  store i32 %54, i32* %6, align 4
  br label %55

55:                                               ; preds = %52
  br label %40

56:                                               ; preds = %51, %40
  %57 = load i32, i32* %6, align 4
  %58 = load i32, i32* %6, align 4
  %59 = mul nsw i32 %57, %58
  %60 = load i32, i32* %3, align 4
  %61 = icmp sgt i32 %59, %60
  br i1 %61, label %62, label %66

62:                                               ; preds = %56
  %63 = load i32, i32* %2, align 4
  %64 = load i32, i32* %3, align 4
  %65 = call i32 (i8*, ...) @printf(i8* getelementptr inbounds ([7 x i8], [7 x i8]* @.str.1, i64 0, i64 0), i32 %63, i32 %64)
  br label %66

66:                                               ; preds = %62, %56
  br label %67

67:                                               ; preds = %66, %30
  %68 = load i32, i32* %2, align 4
  %69 = add nsw i32 %68, 2
  store i32 %69, i32* %2, align 4
  br label %8

70:                                               ; preds = %8
  %71 = load i32, i32* %1, align 4
  ret i32 %71
}

declare dso_local i32 @__isoc99_scanf(i8*, ...) #1

declare dso_local i32 @printf(i8*, ...) #1


!llvm.module.flags = !{!0}
!llvm.ident = !{!1}

!0 = !{i32 1, !"wchar_size", i32 4}
!1 = !{!"clang version 10.0.0-4ubuntu1 "}
